target datalayout = "e-m:e-p270:32:32-p271:32:32-p272:64:64-i64:64-i128:128-f80:128-n8:16:32:64-S128"
target triple = "x86_64-pc-linux-gnu"

%"struct.Stockfish::(anonymous namespace)::DebugInfo" = type { [2 x %"struct.std::atomic"] }
%"struct.std::atomic" = type { %"struct.std::__atomic_base" }
%"struct.std::__atomic_base" = type { i64 }

@_ZN9Stockfish12_GLOBAL__N_13hitE = internal global [32 x %"struct.Stockfish::(anonymous namespace)::DebugInfo"] zeroinitializer, align 16

; Function Attrs: mustprogress nounwind uwtable
define linkonce_odr dso_local noundef i64 @_ZNSt13__atomic_baseIlEppEv(ptr noundef nonnull align 8 dereferenceable(8) %0) #4 comdat align 2 {
  %2 = alloca ptr, align 8
  %3 = alloca i64, align 8
  %4 = alloca i64, align 8
  store ptr %0, ptr %2, align 8
  %5 = load ptr, ptr %2, align 8
  %6 = getelementptr inbounds %"struct.std::__atomic_base", ptr %5, i32 0, i32 0
  store i64 1, ptr %3, align 8
  %7 = load i64, ptr %3, align 8
  %8 = atomicrmw add ptr %6, i64 %7 seq_cst, align 8
  %9 = add i64 %8, %7
  store i64 %9, ptr %4, align 8
  %10 = load i64, ptr %4, align 8
  ret i64 %10
}

; Function Attrs: mustprogress nounwind uwtable
define internal noundef nonnull align 8 dereferenceable(8) ptr @_ZN9Stockfish12_GLOBAL__N_19DebugInfoILm2EEixEi(ptr noundef nonnull align 8 dereferenceable(16) %0, i32 noundef %1) #4 align 2 {
  %3 = alloca ptr, align 8
  %4 = alloca i32, align 4
  store ptr %0, ptr %3, align 8
  store i32 %1, ptr %4, align 4
  %5 = load ptr, ptr %3, align 8
  %6 = getelementptr inbounds %"struct.Stockfish::(anonymous namespace)::DebugInfo", ptr %5, i32 0, i32 0
  %7 = load i32, ptr %4, align 4
  %8 = sext i32 %7 to i64
  %9 = getelementptr inbounds [2 x %"struct.std::atomic"], ptr %6, i64 0, i64 %8
  ret ptr %9
}

; Function Attrs: mustprogress nounwind uwtable
define dso_local void @_ZN9Stockfish10dbg_hit_onEbi(i1 noundef zeroext %0, i32 noundef %1) #4 {
  %3 = alloca i8, align 1
  %4 = alloca i32, align 4
  %5 = zext i1 %0 to i8
  store i8 %5, ptr %3, align 1
  store i32 %1, ptr %4, align 4
  %6 = load i32, ptr %4, align 4
  %7 = sext i32 %6 to i64
  %8 = getelementptr inbounds [32 x %"struct.Stockfish::(anonymous namespace)::DebugInfo"], ptr @_ZN9Stockfish12_GLOBAL__N_13hitE, i64 0, i64 %7
  %9 = call noundef nonnull align 8 dereferenceable(8) ptr @_ZN9Stockfish12_GLOBAL__N_19DebugInfoILm2EEixEi(ptr noundef nonnull align 8 dereferenceable(16) %8, i32 noundef 0)
  %10 = call noundef i64 @_ZNSt13__atomic_baseIlEppEv(ptr noundef nonnull align 8 dereferenceable(8) %9) #3
  %11 = load i8, ptr %3, align 1
  %12 = trunc i8 %11 to i1
  br i1 %12, label %13, label %19

13:                                               ; preds = %2
  %14 = load i32, ptr %4, align 4
  %15 = sext i32 %14 to i64
  %16 = getelementptr inbounds [32 x %"struct.Stockfish::(anonymous namespace)::DebugInfo"], ptr @_ZN9Stockfish12_GLOBAL__N_13hitE, i64 0, i64 %15
  %17 = call noundef nonnull align 8 dereferenceable(8) ptr @_ZN9Stockfish12_GLOBAL__N_19DebugInfoILm2EEixEi(ptr noundef nonnull align 8 dereferenceable(16) %16, i32 noundef 1)
  %18 = call noundef i64 @_ZNSt13__atomic_baseIlEppEv(ptr noundef nonnull align 8 dereferenceable(8) %17) #3
  br label %19

19:                                               ; preds = %13, %2
  ret void
}