; Function Attrs: mustprogress nofree norecurse nounwind willreturn memory(readwrite, argmem: none, inaccessiblemem: none) uwtable
define dso_local void @_ZN9Stockfish10dbg_hit_onEbi(i1 noundef zeroext %0, i32 noundef %1) local_unnamed_addr #4 {
  %3 = sext i32 %1 to i64
  %4 = getelementptr inbounds [32 x %"struct.Stockfish::(anonymous namespace)::DebugInfo"], ptr @_ZN9Stockfish12_GLOBAL__N_13hitE, i64 0, i64 %3
  %5 = atomicrmw add ptr %4, i64 1 seq_cst, align 8
  br i1 %0, label %6, label %9

6:                                                ; preds = %2
  %7 = getelementptr inbounds i8, ptr %4, i64 8
  %8 = atomicrmw add ptr %7, i64 1 seq_cst, align 8
  br label %9

9:                                                ; preds = %6, %2
  ret void
}